; Function Attrs: mustprogress nofree norecurse nosync nounwind willreturn memory(argmem: read) uwtable
define noundef zeroext i1 @_ZNK10open_spiel14colored_trails5Board8InBoundsEii(ptr nocapture noundef nonnull readonly align 8 dereferenceable(112) %0, i32 noundef %1, i32 noundef %2) local_unnamed_addr #5 align 2 {
  %4 = icmp sgt i32 %1, -1
  br i1 %4, label %5, label %10

5:                                                ; preds = %3
  %6 = load i32, ptr %0, align 8
  %7 = icmp slt i32 %1, %6
  %8 = icmp sgt i32 %2, -1
  %or.cond = and i1 %8, %7
  %9 = icmp slt i32 %2, %6
  %spec.select = and i1 %9, %or.cond
  br label %10

10:                                               ; preds = %5, %3
  %11 = phi i1 [ false, %3 ], [ %spec.select, %5 ]
  ret i1 %11
}